; Function Attrs: mustprogress nofree norecurse nosync nounwind willreturn memory(argmem: read) uwtable
define noundef zeroext i1 @_ZN6duckdb12NumericStats6HasMaxERKNS_14BaseStatisticsE(ptr noundef nonnull readonly align 8 captures(none) dereferenceable(88) %0) local_unnamed_addr #6 align 2 {
  %2 = load i8, ptr %0, align 8, !tbaa !28
  %3 = icmp ne i8 %2, 1
  %4 = getelementptr inbounds nuw i8, ptr %0, i64 41
  %5 = load i8, ptr %4, align 1, !range !50
  %6 = trunc nuw i8 %5 to i1
  %.0 = select i1 %3, i1 %6, i1 false
  ret i1 %.0
}